target datalayout = "e-m:e-p270:32:32-p271:32:32-p272:64:64-i64:64-i128:128-f80:128-n8:16:32:64-S128"
target triple = "x86_64-pc-linux-gnu"

@hf_scsi_smc_sa = internal global i32 0, align 4
@hf_scsi_smc_range_flags = internal global i32 0, align 4
@hf_scsi_control = external global i32, align 4
@ett_scsi_control = external global i32, align 4
@cdb_control_fields = external constant [6 x ptr], align 16
@hf_scsi_smc_num_elements = internal global i32 0, align 4
@ett_scsi_range = internal global i32 0, align 4
@dissect_smc_initialize_element_status_with_range.range_fields = internal constant [3 x ptr] [ptr @hf_scsi_smc_fast, ptr @hf_scsi_smc_range, ptr null], align 16

; Function Attrs: null_pointer_is_valid sspstrong uwtable
define internal void @dissect_smc_initialize_element_status_with_range(ptr noundef %0, ptr noundef %1, ptr noundef %2, i32 noundef %3, i1 noundef zeroext %4, i1 noundef zeroext %5, i32 noundef %6, ptr noundef %7) #0 {
  %9 = alloca ptr, align 8
  %10 = alloca ptr, align 8
  %11 = alloca ptr, align 8
  %12 = alloca i32, align 4
  %13 = alloca i8, align 1
  %14 = alloca i8, align 1
  %15 = alloca i32, align 4
  %16 = alloca ptr, align 8
  store ptr %0, ptr %9, align 8
  store ptr %1, ptr %10, align 8
  store ptr %2, ptr %11, align 8
  store i32 %3, ptr %12, align 4
  %17 = zext i1 %4 to i8
  store i8 %17, ptr %13, align 1
  %18 = zext i1 %5 to i8
  store i8 %18, ptr %14, align 1
  store i32 %6, ptr %15, align 4
  store ptr %7, ptr %16, align 8
  %19 = load ptr, ptr %11, align 8
  %20 = icmp ne ptr %19, null
  br i1 %20, label %22, label %21

21:                                               ; preds = %8
  br label %54

22:                                               ; preds = %8
  %23 = load i8, ptr %13, align 1, !range !6, !noundef !7
  %24 = trunc i8 %23 to i1
  br i1 %24, label %25, label %54

25:                                               ; preds = %22
  %26 = load i8, ptr %14, align 1, !range !6, !noundef !7
  %27 = trunc i8 %26 to i1
  br i1 %27, label %28, label %54

28:                                               ; preds = %25
  %29 = load ptr, ptr %11, align 8
  %30 = load ptr, ptr %9, align 8
  %31 = load i32, ptr %12, align 4
  %32 = load i32, ptr @hf_scsi_smc_range_flags, align 4
  %33 = load i32, ptr @ett_scsi_range, align 4
  %34 = call ptr @proto_tree_add_bitmask(ptr noundef %29, ptr noundef %30, i32 noundef %31, i32 noundef %32, i32 noundef %33, ptr noundef @dissect_smc_initialize_element_status_with_range.range_fields, i32 noundef 0)
  %35 = load ptr, ptr %11, align 8
  %36 = load i32, ptr @hf_scsi_smc_sa, align 4
  %37 = load ptr, ptr %9, align 8
  %38 = load i32, ptr %12, align 4
  %39 = add i32 %38, 1
  %40 = call ptr @proto_tree_add_item(ptr noundef %35, i32 noundef %36, ptr noundef %37, i32 noundef %39, i32 noundef 2, i32 noundef 0)
  %41 = load ptr, ptr %11, align 8
  %42 = load i32, ptr @hf_scsi_smc_num_elements, align 4
  %43 = load ptr, ptr %9, align 8
  %44 = load i32, ptr %12, align 4
  %45 = add i32 %44, 5
  %46 = call ptr @proto_tree_add_item(ptr noundef %41, i32 noundef %42, ptr noundef %43, i32 noundef %45, i32 noundef 2, i32 noundef 0)
  %47 = load ptr, ptr %11, align 8
  %48 = load ptr, ptr %9, align 8
  %49 = load i32, ptr %12, align 4
  %50 = add i32 %49, 8
  %51 = load i32, ptr @hf_scsi_control, align 4
  %52 = load i32, ptr @ett_scsi_control, align 4
  %53 = call ptr @proto_tree_add_bitmask(ptr noundef %47, ptr noundef %48, i32 noundef %50, i32 noundef %51, i32 noundef %52, ptr noundef @cdb_control_fields, i32 noundef 0)
  br label %54

54:                                               ; preds = %21, %28, %25, %22
  ret void
}